target datalayout = "e-m:e-p270:32:32-p271:32:32-p272:64:64-i64:64-i128:128-f80:128-n8:16:32:64-S128"
target triple = "x86_64-pc-linux-gnu"

%struct.Qureg = type { i32, i32, i32, i64, i64, i32, i32, %struct.ComplexArray, %struct.ComplexArray, %struct.ComplexArray, ptr, ptr, ptr, ptr, ptr, ptr }
%struct.ComplexArray = type { ptr, ptr }
%struct.QASMLogger = type { ptr, i32, i32, i32 }

@.str.3 = private unnamed_addr constant [3 x i8] c"%s\00", align 1
@.str.99 = private unnamed_addr constant [2 x i8] c"w\00", align 1

; Function Attrs: nounwind uwtable
define i32 @qasm_writeRecordedToFile(ptr noundef byval(%struct.Qureg) align 8 %0, ptr noundef %1) #0 {
  %3 = alloca i32, align 4
  %4 = alloca ptr, align 8
  %5 = alloca ptr, align 8
  %6 = alloca i32, align 4
  store ptr %1, ptr %4, align 8, !tbaa !24
  call void @llvm.lifetime.start.p0(i64 8, ptr %5) #7
  %7 = load ptr, ptr %4, align 8, !tbaa !24
  %8 = call noalias ptr @fopen(ptr noundef %7, ptr noundef @.str.99)
  store ptr %8, ptr %5, align 8, !tbaa !35
  %9 = load ptr, ptr %5, align 8, !tbaa !35
  %10 = icmp eq ptr %9, null
  br i1 %10, label %11, label %12

11:                                               ; preds = %2
  store i32 0, ptr %3, align 4
  store i32 1, ptr %6, align 4
  br label %21

12:                                               ; preds = %2
  %13 = load ptr, ptr %5, align 8, !tbaa !35
  %14 = getelementptr inbounds nuw %struct.Qureg, ptr %0, i32 0, i32 15
  %15 = load ptr, ptr %14, align 8, !tbaa !10
  %16 = getelementptr inbounds nuw %struct.QASMLogger, ptr %15, i32 0, i32 0
  %17 = load ptr, ptr %16, align 8, !tbaa !21
  %18 = call i32 (ptr, ptr, ...) @fprintf(ptr noundef %13, ptr noundef @.str.3, ptr noundef %17) #7
  %19 = load ptr, ptr %5, align 8, !tbaa !35
  %20 = call i32 @fclose(ptr noundef %19)
  store i32 1, ptr %3, align 4
  store i32 1, ptr %6, align 4
  br label %21

21:                                               ; preds = %12, %11
  call void @llvm.lifetime.end.p0(i64 8, ptr %5) #7
  %22 = load i32, ptr %3, align 4
  ret i32 %22
}