; Function Attrs: nofree nounwind uwtable
define range(i32 0, 2) i32 @qasm_writeRecordedToFile(ptr noundef readonly byval(%struct.Qureg) align 8 captures(none) %0, ptr noundef readonly captures(none) %1) local_unnamed_addr #10 {
  %3 = tail call noalias ptr @fopen(ptr noundef %1, ptr noundef nonnull @.str.99)
  %4 = icmp eq ptr %3, null
  br i1 %4, label %10, label %5

5:                                                ; preds = %2
  %6 = getelementptr inbounds nuw i8, ptr %0, i64 128
  %7 = load ptr, ptr %6, align 8, !tbaa !4
  %8 = load ptr, ptr %7, align 8, !tbaa !18
  %fputs = tail call i32 @fputs(ptr %8, ptr nonnull %3)
  %9 = tail call i32 @fclose(ptr noundef nonnull %3)
  br label %10

10:                                               ; preds = %2, %5
  %.0 = phi i32 [ 1, %5 ], [ 0, %2 ]
  ret i32 %.0
}